target datalayout = "e-m:e-p270:32:32-p271:32:32-p272:64:64-i64:64-i128:128-f80:128-n8:16:32:64-S128"
target triple = "x86_64-pc-linux-gnu"

%struct.pkcs7_st = type { ptr, i64, i32, i32, ptr, %union.anon, %struct.PKCS7_CTX_st }
%union.anon = type { ptr }
%struct.PKCS7_CTX_st = type { ptr, ptr }
%struct.pkcs7_signed_st = type { ptr, ptr, ptr, ptr, ptr, ptr }

@.str = private unnamed_addr constant [34 x i8] c"../openssl/crypto/pkcs7/pk7_lib.c\00", align 1
@__func__.PKCS7_ctrl = private unnamed_addr constant [11 x i8] c"PKCS7_ctrl\00", align 1

; Function Attrs: nounwind uwtable
define i64 @PKCS7_ctrl(ptr noundef %0, i32 noundef %1, i64 noundef %2, ptr noundef %3) #0 {
  %5 = alloca ptr, align 8
  %6 = alloca i32, align 4
  %7 = alloca i64, align 8
  %8 = alloca ptr, align 8
  %9 = alloca i32, align 4
  %10 = alloca i64, align 8
  %11 = alloca ptr, align 8
  store ptr %0, ptr %5, align 8, !tbaa !3
  store i32 %1, ptr %6, align 4, !tbaa !8
  store i64 %2, ptr %7, align 8, !tbaa !10
  store ptr %3, ptr %8, align 8, !tbaa !12
  call void @llvm.lifetime.start.p0(i64 4, ptr %9) #4
  call void @llvm.lifetime.start.p0(i64 8, ptr %10) #4
  %12 = load ptr, ptr %5, align 8, !tbaa !3
  %13 = getelementptr inbounds nuw %struct.pkcs7_st, ptr %12, i32 0, i32 4
  %14 = load ptr, ptr %13, align 8, !tbaa !14
  %15 = call i32 @OBJ_obj2nid(ptr noundef %14)
  store i32 %15, ptr %9, align 4, !tbaa !8
  %16 = load i32, ptr %6, align 4, !tbaa !8
  switch i32 %16, label %88 [
    i32 1, label %17
    i32 2, label %62
  ]

17:                                               ; preds = %4
  %18 = load i32, ptr %9, align 4, !tbaa !8
  %19 = icmp eq i32 %18, 22
  br i1 %19, label %20, label %60

20:                                               ; preds = %17
  %21 = load ptr, ptr %5, align 8, !tbaa !3
  %22 = getelementptr inbounds nuw %struct.pkcs7_st, ptr %21, i32 0, i32 5
  %23 = load ptr, ptr %22, align 8, !tbaa !19
  %24 = icmp eq ptr %23, null
  br i1 %24, label %25, label %26

25:                                               ; preds = %20
  call void @ERR_new()
  call void @ERR_set_debug(ptr noundef @.str, i32 noundef 32, ptr noundef @__func__.PKCS7_ctrl)
  call void (i32, i32, ptr, ...) @ERR_set_error(i32 noundef 33, i32 noundef 122, ptr noundef null)
  store i64 0, ptr %10, align 8, !tbaa !10
  br label %89

26:                                               ; preds = %20
  %27 = load i64, ptr %7, align 8, !tbaa !10
  %28 = trunc i64 %27 to i32
  %29 = load ptr, ptr %5, align 8, !tbaa !3
  %30 = getelementptr inbounds nuw %struct.pkcs7_st, ptr %29, i32 0, i32 3
  store i32 %28, ptr %30, align 4, !tbaa !20
  %31 = sext i32 %28 to i64
  store i64 %31, ptr %10, align 8, !tbaa !10
  %32 = load i64, ptr %10, align 8, !tbaa !10
  %33 = icmp ne i64 %32, 0
  br i1 %33, label %34, label %59

34:                                               ; preds = %26
  %35 = load ptr, ptr %5, align 8, !tbaa !3
  %36 = getelementptr inbounds nuw %struct.pkcs7_st, ptr %35, i32 0, i32 5
  %37 = load ptr, ptr %36, align 8, !tbaa !19
  %38 = getelementptr inbounds nuw %struct.pkcs7_signed_st, ptr %37, i32 0, i32 5
  %39 = load ptr, ptr %38, align 8, !tbaa !21
  %40 = getelementptr inbounds nuw %struct.pkcs7_st, ptr %39, i32 0, i32 4
  %41 = load ptr, ptr %40, align 8, !tbaa !14
  %42 = call i32 @OBJ_obj2nid(ptr noundef %41)
  %43 = icmp eq i32 %42, 21
  br i1 %43, label %44, label %59

44:                                               ; preds = %34
  call void @llvm.lifetime.start.p0(i64 8, ptr %11) #4
  %45 = load ptr, ptr %5, align 8, !tbaa !3
  %46 = getelementptr inbounds nuw %struct.pkcs7_st, ptr %45, i32 0, i32 5
  %47 = load ptr, ptr %46, align 8, !tbaa !19
  %48 = getelementptr inbounds nuw %struct.pkcs7_signed_st, ptr %47, i32 0, i32 5
  %49 = load ptr, ptr %48, align 8, !tbaa !21
  %50 = getelementptr inbounds nuw %struct.pkcs7_st, ptr %49, i32 0, i32 5
  %51 = load ptr, ptr %50, align 8, !tbaa !19
  store ptr %51, ptr %11, align 8, !tbaa !28
  %52 = load ptr, ptr %11, align 8, !tbaa !28
  call void @ASN1_OCTET_STRING_free(ptr noundef %52)
  %53 = load ptr, ptr %5, align 8, !tbaa !3
  %54 = getelementptr inbounds nuw %struct.pkcs7_st, ptr %53, i32 0, i32 5
  %55 = load ptr, ptr %54, align 8, !tbaa !19
  %56 = getelementptr inbounds nuw %struct.pkcs7_signed_st, ptr %55, i32 0, i32 5
  %57 = load ptr, ptr %56, align 8, !tbaa !21
  %58 = getelementptr inbounds nuw %struct.pkcs7_st, ptr %57, i32 0, i32 5
  store ptr null, ptr %58, align 8, !tbaa !19
  call void @llvm.lifetime.end.p0(i64 8, ptr %11) #4
  br label %59

59:                                               ; preds = %44, %34, %26
  br label %61

60:                                               ; preds = %17
  call void @ERR_new()
  call void @ERR_set_debug(ptr noundef @.str, i32 noundef 45, ptr noundef @__func__.PKCS7_ctrl)
  call void (i32, i32, ptr, ...) @ERR_set_error(i32 noundef 33, i32 noundef 104, ptr noundef null)
  store i64 0, ptr %10, align 8, !tbaa !10
  br label %61

61:                                               ; preds = %60, %59
  br label %89

62:                                               ; preds = %4
  %63 = load i32, ptr %9, align 4, !tbaa !8
  %64 = icmp eq i32 %63, 22
  br i1 %64, label %65, label %86

65:                                               ; preds = %62
  %66 = load ptr, ptr %5, align 8, !tbaa !3
  %67 = getelementptr inbounds nuw %struct.pkcs7_st, ptr %66, i32 0, i32 5
  %68 = load ptr, ptr %67, align 8, !tbaa !19
  %69 = icmp eq ptr %68, null
  br i1 %69, label %79, label %70

70:                                               ; preds = %65
  %71 = load ptr, ptr %5, align 8, !tbaa !3
  %72 = getelementptr inbounds nuw %struct.pkcs7_st, ptr %71, i32 0, i32 5
  %73 = load ptr, ptr %72, align 8, !tbaa !19
  %74 = getelementptr inbounds nuw %struct.pkcs7_signed_st, ptr %73, i32 0, i32 5
  %75 = load ptr, ptr %74, align 8, !tbaa !21
  %76 = getelementptr inbounds nuw %struct.pkcs7_st, ptr %75, i32 0, i32 5
  %77 = load ptr, ptr %76, align 8, !tbaa !19
  %78 = icmp eq ptr %77, null
  br i1 %78, label %79, label %80

79:                                               ; preds = %70, %65
  store i64 1, ptr %10, align 8, !tbaa !10
  br label %81

80:                                               ; preds = %70
  store i64 0, ptr %10, align 8, !tbaa !10
  br label %81

81:                                               ; preds = %80, %79
  %82 = load i64, ptr %10, align 8, !tbaa !10
  %83 = trunc i64 %82 to i32
  %84 = load ptr, ptr %5, align 8, !tbaa !3
  %85 = getelementptr inbounds nuw %struct.pkcs7_st, ptr %84, i32 0, i32 3
  store i32 %83, ptr %85, align 4, !tbaa !20
  br label %87

86:                                               ; preds = %62
  call void @ERR_new()
  call void @ERR_set_debug(ptr noundef @.str, i32 noundef 59, ptr noundef @__func__.PKCS7_ctrl)
  call void (i32, i32, ptr, ...) @ERR_set_error(i32 noundef 33, i32 noundef 104, ptr noundef null)
  store i64 0, ptr %10, align 8, !tbaa !10
  br label %87

87:                                               ; preds = %86, %81
  br label %89

88:                                               ; preds = %4
  call void @ERR_new()
  call void @ERR_set_debug(ptr noundef @.str, i32 noundef 65, ptr noundef @__func__.PKCS7_ctrl)
  call void (i32, i32, ptr, ...) @ERR_set_error(i32 noundef 33, i32 noundef 110, ptr noundef null)
  store i64 0, ptr %10, align 8, !tbaa !10
  br label %89

89:                                               ; preds = %88, %87, %61, %25
  %90 = load i64, ptr %10, align 8, !tbaa !10
  call void @llvm.lifetime.end.p0(i64 8, ptr %10) #4
  call void @llvm.lifetime.end.p0(i64 4, ptr %9) #4
  ret i64 %90
}