; Function Attrs: nounwind uwtable
define range(i64 -2147483648, 2147483648) i64 @PKCS7_ctrl(ptr noundef captures(none) %0, i32 noundef %1, i64 noundef %2, ptr noundef readnone captures(none) %3) local_unnamed_addr #0 {
  %5 = getelementptr inbounds nuw i8, ptr %0, i64 24
  %6 = load ptr, ptr %5, align 8, !tbaa !3
  %7 = tail call i32 @OBJ_obj2nid(ptr noundef %6) #7
  switch i32 %1, label %53 [
    i32 1, label %8
    i32 2, label %37
  ]

8:                                                ; preds = %4
  %9 = icmp eq i32 %7, 22
  br i1 %9, label %10, label %36

10:                                               ; preds = %8
  %11 = getelementptr inbounds nuw i8, ptr %0, i64 32
  %12 = load ptr, ptr %11, align 8, !tbaa !14
  %13 = icmp eq ptr %12, null
  br i1 %13, label %14, label %15

14:                                               ; preds = %10
  tail call void @ERR_new() #7
  tail call void @ERR_set_debug(ptr noundef nonnull @.str, i32 noundef 32, ptr noundef nonnull @__func__.PKCS7_ctrl) #7
  tail call void (i32, i32, ptr, ...) @ERR_set_error(i32 noundef 33, i32 noundef 122, ptr noundef null) #7
  br label %54

15:                                               ; preds = %10
  %16 = trunc i64 %2 to i32
  %17 = getelementptr inbounds nuw i8, ptr %0, i64 20
  store i32 %16, ptr %17, align 4, !tbaa !15
  %sext = shl i64 %2, 32
  %18 = ashr exact i64 %sext, 32
  %.not = icmp eq i64 %sext, 0
  br i1 %.not, label %54, label %19

19:                                               ; preds = %15
  %20 = getelementptr inbounds nuw i8, ptr %12, i64 40
  %21 = load ptr, ptr %20, align 8, !tbaa !16
  %22 = getelementptr inbounds nuw i8, ptr %21, i64 24
  %23 = load ptr, ptr %22, align 8, !tbaa !3
  %24 = tail call i32 @OBJ_obj2nid(ptr noundef %23) #7
  %25 = icmp eq i32 %24, 21
  br i1 %25, label %26, label %54

26:                                               ; preds = %19
  %27 = load ptr, ptr %11, align 8, !tbaa !14
  %28 = getelementptr inbounds nuw i8, ptr %27, i64 40
  %29 = load ptr, ptr %28, align 8, !tbaa !16
  %30 = getelementptr inbounds nuw i8, ptr %29, i64 32
  %31 = load ptr, ptr %30, align 8, !tbaa !14
  tail call void @ASN1_OCTET_STRING_free(ptr noundef %31) #7
  %32 = load ptr, ptr %11, align 8, !tbaa !14
  %33 = getelementptr inbounds nuw i8, ptr %32, i64 40
  %34 = load ptr, ptr %33, align 8, !tbaa !16
  %35 = getelementptr inbounds nuw i8, ptr %34, i64 32
  store ptr null, ptr %35, align 8, !tbaa !14
  br label %54

36:                                               ; preds = %8
  tail call void @ERR_new() #7
  tail call void @ERR_set_debug(ptr noundef nonnull @.str, i32 noundef 45, ptr noundef nonnull @__func__.PKCS7_ctrl) #7
  tail call void (i32, i32, ptr, ...) @ERR_set_error(i32 noundef 33, i32 noundef 104, ptr noundef null) #7
  br label %54

37:                                               ; preds = %4
  %38 = icmp eq i32 %7, 22
  br i1 %38, label %39, label %52

39:                                               ; preds = %37
  %40 = getelementptr inbounds nuw i8, ptr %0, i64 32
  %41 = load ptr, ptr %40, align 8, !tbaa !14
  %42 = icmp eq ptr %41, null
  br i1 %42, label %49, label %43

43:                                               ; preds = %39
  %44 = getelementptr inbounds nuw i8, ptr %41, i64 40
  %45 = load ptr, ptr %44, align 8, !tbaa !16
  %46 = getelementptr inbounds nuw i8, ptr %45, i64 32
  %47 = load ptr, ptr %46, align 8, !tbaa !14
  %48 = icmp eq ptr %47, null
  %spec.select = zext i1 %48 to i64
  br label %49

49:                                               ; preds = %43, %39
  %.1 = phi i64 [ 1, %39 ], [ %spec.select, %43 ]
  %50 = trunc nuw nsw i64 %.1 to i32
  %51 = getelementptr inbounds nuw i8, ptr %0, i64 20
  store i32 %50, ptr %51, align 4, !tbaa !15
  br label %54

52:                                               ; preds = %37
  tail call void @ERR_new() #7
  tail call void @ERR_set_debug(ptr noundef nonnull @.str, i32 noundef 59, ptr noundef nonnull @__func__.PKCS7_ctrl) #7
  tail call void (i32, i32, ptr, ...) @ERR_set_error(i32 noundef 33, i32 noundef 104, ptr noundef null) #7
  br label %54

53:                                               ; preds = %4
  tail call void @ERR_new() #7
  tail call void @ERR_set_debug(ptr noundef nonnull @.str, i32 noundef 65, ptr noundef nonnull @__func__.PKCS7_ctrl) #7
  tail call void (i32, i32, ptr, ...) @ERR_set_error(i32 noundef 33, i32 noundef 110, ptr noundef null) #7
  br label %54

54:                                               ; preds = %49, %52, %36, %26, %19, %15, %53, %14
  %.0 = phi i64 [ 0, %53 ], [ %.1, %49 ], [ 0, %52 ], [ 0, %14 ], [ %18, %26 ], [ %18, %19 ], [ 0, %15 ], [ 0, %36 ]
  ret i64 %.0
}